; Function Attrs: mustprogress nofree norecurse nosync nounwind willreturn memory(read, inaccessiblemem: none) uwtable
define dso_local ptr @Curl_dynhds_getn(ptr noundef readonly captures(none) %0, i64 noundef %1) local_unnamed_addr #3 {
  %3 = getelementptr inbounds nuw i8, ptr %0, i64 8
  %4 = load i64, ptr %3, align 8, !tbaa !16
  %5 = icmp ult i64 %1, %4
  br i1 %5, label %6, label %10

6:                                                ; preds = %2
  %7 = load ptr, ptr %0, align 8, !tbaa !15
  %8 = getelementptr inbounds nuw ptr, ptr %7, i64 %1
  %9 = load ptr, ptr %8, align 8, !tbaa !17
  br label %10

10:                                               ; preds = %2, %6
  %11 = phi ptr [ %9, %6 ], [ null, %2 ]
  ret ptr %11
}